; Function Attrs: inlinehint nofree nounwind memory(write, argmem: readwrite, inaccessiblemem: readwrite) uwtable
define internal fastcc range(i32 -32, 1) i32 @pmix_bfrops_base_tma_copy_nspace(ptr noundef writeonly captures(none) %0, ptr noundef readonly captures(address_is_null) %1) unnamed_addr #15 {
  %calloc = tail call dereferenceable_or_null(256) ptr @calloc(i64 1, i64 256)
  %3 = icmp eq ptr %calloc, null
  br i1 %3, label %11, label %4, !prof !43

4:                                                ; preds = %2
  %.not.i = icmp eq ptr %1, null
  br i1 %.not.i, label %pmix_bfrops_base_tma_load_nspace.exit, label %.preheader.i

.preheader.i:                                     ; preds = %4, %7
  %.012.i.i = phi i64 [ %8, %7 ], [ 0, %4 ]
  %.0811.i.i = phi ptr [ %10, %7 ], [ %calloc, %4 ]
  %.0910.i.i = phi ptr [ %9, %7 ], [ %1, %4 ]
  %5 = load i8, ptr %.0910.i.i, align 1, !tbaa !48
  store i8 %5, ptr %.0811.i.i, align 1, !tbaa !48
  %6 = icmp eq i8 %5, 0
  br i1 %6, label %pmix_strncpy.exit.i, label %7

7:                                                ; preds = %.preheader.i
  %8 = add nuw nsw i64 %.012.i.i, 1
  %9 = getelementptr inbounds nuw i8, ptr %.0910.i.i, i64 1
  %10 = getelementptr inbounds nuw i8, ptr %.0811.i.i, i64 1
  %exitcond.not.i.i = icmp eq i64 %8, 255
  br i1 %exitcond.not.i.i, label %pmix_strncpy.exit.i, label %.preheader.i, !llvm.loop !49

pmix_strncpy.exit.i:                              ; preds = %7, %.preheader.i
  %.08.lcssa.i.i = phi ptr [ %.0811.i.i, %.preheader.i ], [ %10, %7 ]
  store i8 0, ptr %.08.lcssa.i.i, align 1, !tbaa !48
  br label %pmix_bfrops_base_tma_load_nspace.exit

pmix_bfrops_base_tma_load_nspace.exit:            ; preds = %4, %pmix_strncpy.exit.i
  store ptr %calloc, ptr %0, align 8, !tbaa !40
  br label %11

11:                                               ; preds = %2, %pmix_bfrops_base_tma_load_nspace.exit
  %.0 = phi i32 [ 0, %pmix_bfrops_base_tma_load_nspace.exit ], [ -32, %2 ]
  ret i32 %.0
}